(ircommander_pr2_gui.move_head_tool
MoveHeadState
p1
(dp2
S'outputs'
p3
(dp4
sS'remapping'
p5
(dp6
sS'runnable'
p7
I01
sS'name'
p8
S'move_head_ang1'
p9
sS'joint_waypoints'
p10
(lp11
(dp12
S'data'
p13
(dp14
S'time'
p15
F1
sS'angs'
p16
(lp17
cnumpy.core.multiarray
scalar
p18
(cnumpy
dtype
p19
(S'f8'
I0
I1
tRp20
(I3
S'<'
NNNI-1
I-1
I0
tbS'\x0b\xcd\xa4\xcev\t\xcc\xbf'
tRp21
ag18
(g20
S'\xc8rG\x01\x05\x9e\xee?'
tRp22
assS'name'
p23
S'point0'
p24
sasb.