(dp1
S'start_state'
p2
S'freeze_frame2'
p3
sS'state_names'
p4
(lp5
S'gripper0'
p6
aS'preempted0'
p7
aS'preempted1'
p8
aS'preempted2'
p9
aS'preempted3'
p10
aS'freeze_frame2'
p11
aS'aborted1'
p12
aS'aborted0'
p13
aS'velocity_priority3'
p14
aS'failed0'
p15
aS'failed1'
p16
aS'succeeded1'
p17
aS'freeze_frame3'
p18
aS'velocity_priority4'
p19
aS'tuck0'
p20
as.