(dp1
S'start_state'
p2
S'freeze_frame2'
p3
sS'state_names'
p4
(lp5
S'frame_invalid1'
p6
aS'gripper0'
p7
aS'preempted0'
p8
aS'succeeded1'
p9
aS'preempted2'
p10
aS'freeze_frame3'
p11
aS'aborted1'
p12
aS'aborted0'
p13
aS'preempted3'
p14
aS'failed0'
p15
aS'failed1'
p16
aS'freeze_frame2'
p17
aS'velocity_priority4'
p18
aS'frame_invalid0'
p19
aS'tuck0'
p20
aS'velocity_priority3'
p21
aS'preempted1'
p22
as.