(dp1
S'start_state'
p2
S'tuck0'
p3
sS'state_names'
p4
(lp5
S'preempted5'
p6
aS'aborted0'
p7
aS'preempted0'
p8
aS'preempted1'
p9
aS'preempted2'
p10
aS'preempted3'
p11
aS'aborted2'
p12
aS'aborted1'
p13
aS'joint_sequence0'
p14
aS'gripper_event0'
p15
aS'aborted5'
p16
aS'preempted00'
p17
aS'failed0'
p18
aS'timed_out2'
p19
aS'succeeded0'
p20
aS'timed_out0'
p21
aS'joint_sequence2'
p22
aS'speak0'
p23
aS'gripper1'
p24
aS'gripper0'
p25
aS'tuck0'
p26
as.