(dp1
S'start_state'
p2
S'tuck0'
p3
sS'state_names'
p4
(lp5
S'aborted2'
p6
aS'aborted1'
p7
aS'aborted0'
p8
aS'aborted5'
p9
aS'timed_out2'
p10
aS'timed_out0'
p11
aS'succeeded0'
p12
aS'gripper1'
p13
aS'gripper0'
p14
aS'preempted5'
p15
aS'preempted0'
p16
aS'preempted1'
p17
aS'preempted2'
p18
aS'preempted3'
p19
aS'joint_sequence2'
p20
aS'joint_sequence0'
p21
aS'preempted00'
p22
aS'gripper_event0'
p23
ag3
aS'failed0'
p24
aS'speak0'
p25
as.