(ircommander_pr2_gui.speak_tool
SpeakNode
p1
(dp2
S'runnable'
p3
I01
sS'name'
p4
S'speak0'
p5
sS'outputs'
p6
(dp7
sS'text'
p8
S'please put an object in my gripper'
p9
sS'remapping'
p10
(dp11
sS'voice'
p12
S'don_diphone'
p13
sb.