(ircommander.freeze_frame_tool
FreezeFrameState
p1
(dp2
S'runnable'
p3
I01
sS'name'
p4
S'freeze_frame0'
p5
sS'outputs'
p6
(dp7
sS'frame_to_clone'
p8
S'/l_gripper_tool_frame'
p9
sS'remapping'
p10
(dp11
sS'base_frame'
p12
S'/base_link'
p13
sb.