(ircommander_pr2_gui.move_head_tool
MoveHeadState
p1
(dp2
S'outputs'
p3
(dp4
sS'remapping'
p5
(dp6
sS'runnable'
p7
I01
sS'name'
p8
S'move_head_ang0'
p9
sS'joint_waypoints'
p10
(lp11
(dp12
S'data'
p13
(dp14
S'angs'
p15
(lp16
cnumpy.core.multiarray
scalar
p17
(cnumpy
dtype
p18
(S'f8'
I0
I1
tRp19
(I3
S'<'
NNNI-1
I-1
I0
tbS'5z+;\x04P\xb5\xbf'
tRp20
ag17
(g19
S'U-\x07\xe4\xf8\x11\xed?'
tRp21
asS'time'
p22
F1
ssS'name'
p23
S'point0'
p24
sasb.