(ircommander_pr2_gui.spine_tool
SpineState
p1
(dp2
S'goal_cb_str'
p3
S'ros_goal'
p4
sS'input_keys'
p5
(lp6
sS'runnable'
p7
I01
sS'name'
p8
S'move_spine0'
p9
sS'outputs'
p10
(dp11
sS'action_name'
p12
S'torso_controller/position_joint_action'
p13
sS'action_type'
p14
cpr2_controllers_msgs.msg._SingleJointPositionAction
SingleJointPositionAction
p15
sS'position'
p16
F0.021400000000000002
sS'remapping'
p17
(dp18
sS'output_keys'
p19
(lp20
sb.