(ircommander_pr2_gui.tuck_tool
TuckState
p1
(dp2
S'goal_cb_str'
p3
S'ros_goal'
p4
sS'input_keys'
p5
(lp6
sS'runnable'
p7
I01
sS'name'
p8
S'tuck0'
p9
sS'outputs'
p10
(dp11
sS'action_name'
p12
S'rcommander_tuckarms'
p13
sS'action_type'
p14
crcommander_pr2_gui.msg._RCTuckArmsAction
RCTuckArmsAction
p15
sS'remapping'
p16
(dp17
sS'tuck_left'
p18
I01
sS'tuck_right'
p19
I00
sS'output_keys'
p20
(lp21
sb.