(ircommander_pr2_gui.gripper_tool
GripperState
p1
(dp2
S'goal_cb_str'
p3
S'ros_goal'
p4
sS'input_keys'
p5
(lp6
sS'runnable'
p7
I01
sS'name'
p8
S'gripper2_open'
p9
sS'outputs'
p10
(dp11
sS'action_name'
p12
S'r_gripper_controller/gripper_action'
p13
sS'gripper_size'
p14
F6.5564
sS'action_type'
p15
cpr2_controllers_msgs.msg._Pr2GripperCommandAction
Pr2GripperCommandAction
p16
sS'remapping'
p17
(dp18
sS'effort'
p19
F50
sS'arm'
p20
S'right'
p21
sS'output_keys'
p22
(lp23
sb.