(dp1
S'start_state'
p2
S'look_up'
p3
sS'state_names'
p4
(lp5
S'preempted4'
p6
aS'gripper_event0'
p7
aS'aborted0'
p8
aS'preempted0'
p9
aS'preempted1'
p10
aS'preempted2'
p11
aS'preempted3'
p12
aS'aborted3'
p13
aS'aborted2'
p14
aS'aborted1'
p15
aS'joint_sequence0'
p16
aS'failed0'
p17
aS'preempted00'
p18
aS'timed_out0'
p19
aS'look_up'
p20
aS'succeeded1'
p21
aS'timed_out1'
p22
aS'speak0'
p23
aS'gripper0'
p24
aS'tuck0'
p25
aS'pull_object_out_of_store'
p26
as.