(dp1
S'start_state'
p2
S'look_up'
p3
sS'state_names'
p4
(lp5
S'aborted3'
p6
aS'aborted2'
p7
aS'aborted1'
p8
aS'aborted0'
p9
aS'timed_out0'
p10
aS'timed_out1'
p11
aS'pull_object_out_of_store'
p12
aS'succeeded1'
p13
aS'gripper0'
p14
aS'preempted4'
p15
aS'preempted0'
p16
aS'preempted1'
p17
aS'preempted2'
p18
aS'preempted3'
p19
aS'joint_sequence0'
p20
aS'preempted00'
p21
aS'gripper_event0'
p22
aS'tuck0'
p23
aS'failed0'
p24
ag3
aS'speak0'
p25
as.